target datalayout = "e-m:e-p270:32:32-p271:32:32-p272:64:64-i64:64-i128:128-f80:128-n8:16:32:64-S128"
target triple = "x86_64-pc-linux-gnu"

%struct.ucontext_t = type { i64, ptr, %struct.stack_t, %struct.mcontext_t, %struct.__sigset_t, %struct._libc_fpstate, [4 x i64] }
%struct.stack_t = type { ptr, i32, i64 }
%struct.mcontext_t = type { [23 x i64], ptr, [8 x i64] }
%struct.__sigset_t = type { [16 x i64] }
%struct._libc_fpstate = type { i16, i16, i16, i16, i64, i64, i32, i32, [8 x %struct._libc_fpxreg], [16 x %struct._libc_xmmreg], [24 x i32] }
%struct._libc_fpxreg = type { [4 x i16], i16, [3 x i16] }
%struct._libc_xmmreg = type { [4 x i32] }
%"struct.Atomic::CmpxchgImpl.5" = type { i8 }
%"struct.Atomic::PlatformCmpxchg.6" = type { i8 }

@g_assert_poison = hidden global ptr @_ZL7g_dummy, align 8
@_ZL19g_assertion_context = internal global ptr null, align 8
@_ZL18g_asserting_thread = internal global i64 0, align 8
@_ZL26g_stored_assertion_context = internal global %struct.ucontext_t zeroinitializer, align 8
@_ZN6OSInfo13_vm_page_sizeE = external global i64, align 8

; Function Attrs: mustprogress nounwind uwtable
define linkonce_odr hidden noundef i64 @_ZNK6Atomic15PlatformCmpxchgILm8EEclIlEET_PVS3_S3_S3_19atomic_memory_order(ptr noundef nonnull align 1 dereferenceable(1) %0, ptr noundef %1, i64 noundef %2, i64 noundef %3, i32 noundef %4) #1 comdat align 2 {
  %6 = alloca ptr, align 8
  %7 = alloca ptr, align 8
  %8 = alloca i64, align 8
  %9 = alloca i64, align 8
  %10 = alloca i32, align 4
  store ptr %0, ptr %6, align 8
  store ptr %1, ptr %7, align 8
  store i64 %2, ptr %8, align 8
  store i64 %3, ptr %9, align 8
  store i32 %4, ptr %10, align 4
  %11 = load i64, ptr %9, align 8
  %12 = load i64, ptr %8, align 8
  %13 = load ptr, ptr %7, align 8
  %14 = call i64 asm sideeffect "lock cmpxchgq $1,($3)", "={ax},r,{ax},r,~{cc},~{memory},~{dirflag},~{fpsr},~{flags}"(i64 %11, i64 %12, ptr %13) #11, !srcloc !10
  store i64 %14, ptr %9, align 8
  %15 = load i64, ptr %9, align 8
  ret i64 %15
}

; Function Attrs: mustprogress nounwind uwtable
define linkonce_odr hidden noundef i64 @_ZNK6Atomic11CmpxchgImplIlllvEclEPVlll19atomic_memory_order(ptr noundef nonnull align 1 dereferenceable(1) %0, ptr noundef %1, i64 noundef %2, i64 noundef %3, i32 noundef %4) #1 comdat align 2 {
  %6 = alloca ptr, align 8
  %7 = alloca ptr, align 8
  %8 = alloca i64, align 8
  %9 = alloca i64, align 8
  %10 = alloca i32, align 4
  %11 = alloca %"struct.Atomic::PlatformCmpxchg.6", align 1
  store ptr %0, ptr %6, align 8
  store ptr %1, ptr %7, align 8
  store i64 %2, ptr %8, align 8
  store i64 %3, ptr %9, align 8
  store i32 %4, ptr %10, align 4
  %12 = load ptr, ptr %7, align 8
  %13 = load i64, ptr %8, align 8
  %14 = load i64, ptr %9, align 8
  %15 = load i32, ptr %10, align 4
  %16 = call noundef i64 @_ZNK6Atomic15PlatformCmpxchgILm8EEclIlEET_PVS3_S3_S3_19atomic_memory_order(ptr noundef nonnull align 1 dereferenceable(1) %11, ptr noundef %12, i64 noundef %13, i64 noundef %14, i32 noundef %15)
  ret i64 %16
}

; Function Attrs: mustprogress nounwind uwtable
define linkonce_odr hidden noundef i64 @_ZN6OSInfo12vm_page_sizeEv() #1 comdat align 2 {
  %1 = load i64, ptr @_ZN6OSInfo13_vm_page_sizeE, align 8
  ret i64 %1
}

; Function Attrs: mustprogress nounwind uwtable
define internal void @_ZL13store_contextPKv(ptr noundef %0) #1 {
  %2 = alloca ptr, align 8
  store ptr %0, ptr %2, align 8
  %3 = load ptr, ptr %2, align 8
  call void @llvm.memcpy.p0.p0.i64(ptr align 8 @_ZL26g_stored_assertion_context, ptr align 1 %3, i64 968, i1 false)
  ret void
}

; Function Attrs: mustprogress nounwind uwtable
define linkonce_odr hidden noundef i64 @_ZN6Atomic7cmpxchgIlllEET_PVS1_T0_T1_19atomic_memory_order(ptr noundef %0, i64 noundef %1, i64 noundef %2, i32 noundef %3) #1 comdat align 2 {
  %5 = alloca ptr, align 8
  %6 = alloca i64, align 8
  %7 = alloca i64, align 8
  %8 = alloca i32, align 4
  %9 = alloca %"struct.Atomic::CmpxchgImpl.5", align 1
  store ptr %0, ptr %5, align 8
  store i64 %1, ptr %6, align 8
  store i64 %2, ptr %7, align 8
  store i32 %3, ptr %8, align 4
  %10 = load ptr, ptr %5, align 8
  %11 = load i64, ptr %6, align 8
  %12 = load i64, ptr %7, align 8
  %13 = load i32, ptr %8, align 4
  %14 = call noundef i64 @_ZNK6Atomic11CmpxchgImplIlllvEclEPVlll19atomic_memory_order(ptr noundef nonnull align 1 dereferenceable(1) %9, ptr noundef %10, i64 noundef %11, i64 noundef %12, i32 noundef %13)
  ret i64 %14
}

; Function Attrs: mustprogress nounwind uwtable
define linkonce_odr hidden noundef i64 @_ZN2os12vm_page_sizeEv() #1 comdat align 2 {
  %1 = call noundef i64 @_ZN6OSInfo12vm_page_sizeEv()
  ret i64 %1
}

; Function Attrs: mustprogress nounwind uwtable
define hidden noundef zeroext i1 @_Z26handle_assert_poison_faultPKvS0_(ptr noundef %0, ptr noundef %1) #1 {
  %3 = alloca i1, align 1
  %4 = alloca ptr, align 8
  %5 = alloca ptr, align 8
  %6 = alloca i64, align 8
  store ptr %0, ptr %4, align 8
  store ptr %1, ptr %5, align 8
  %7 = load ptr, ptr %5, align 8
  %8 = load ptr, ptr @g_assert_poison, align 8
  %9 = icmp eq ptr %7, %8
  br i1 %9, label %10, label %29

10:                                               ; preds = %2
  %11 = load ptr, ptr @g_assert_poison, align 8
  %12 = call noundef i64 @_ZN2os12vm_page_sizeEv()
  %13 = call noundef zeroext i1 @_ZN2os14protect_memoryEPcmNS_8ProtTypeEb(ptr noundef %11, i64 noundef %12, i32 noundef 3, i1 noundef zeroext true)
  %14 = zext i1 %13 to i32
  %15 = icmp eq i32 %14, 0
  br i1 %15, label %16, label %17

16:                                               ; preds = %10
  store i1 false, ptr %3, align 1
  br label %30

17:                                               ; preds = %10
  %18 = load ptr, ptr %4, align 8
  %19 = icmp ne ptr %18, null
  br i1 %19, label %20, label %28

20:                                               ; preds = %17
  %21 = call noundef i64 @_ZN2os17current_thread_idEv()
  store i64 %21, ptr %6, align 8
  %22 = load i64, ptr %6, align 8
  %23 = call noundef i64 @_ZN6Atomic7cmpxchgIlllEET_PVS1_T0_T1_19atomic_memory_order(ptr noundef @_ZL18g_asserting_thread, i64 noundef 0, i64 noundef %22, i32 noundef 8)
  %24 = icmp eq i64 %23, 0
  br i1 %24, label %25, label %27

25:                                               ; preds = %20
  %26 = load ptr, ptr %4, align 8
  call void @_ZL13store_contextPKv(ptr noundef %26)
  store ptr @_ZL26g_stored_assertion_context, ptr @_ZL19g_assertion_context, align 8
  br label %27

27:                                               ; preds = %25, %20
  br label %28

28:                                               ; preds = %27, %17
  store i1 true, ptr %3, align 1
  br label %30

29:                                               ; preds = %2
  store i1 false, ptr %3, align 1
  br label %30

30:                                               ; preds = %29, %28, %16
  %31 = load i1, ptr %3, align 1
  ret i1 %31
}