; Function Attrs: mustprogress nounwind uwtable
define hidden noundef zeroext i1 @_Z26handle_assert_poison_faultPKvS0_(ptr noundef readonly %0, ptr noundef readnone %1) local_unnamed_addr #1 {
  %3 = load ptr, ptr @g_assert_poison, align 8
  %4 = icmp eq ptr %3, %1
  br i1 %4, label %5, label %14

5:                                                ; preds = %2
  %6 = load i64, ptr @_ZN6OSInfo13_vm_page_sizeE, align 8
  %7 = tail call noundef zeroext i1 @_ZN2os14protect_memoryEPcmNS_8ProtTypeEb(ptr noundef %3, i64 noundef %6, i32 noundef 3, i1 noundef zeroext true) #16
  br i1 %7, label %8, label %14

8:                                                ; preds = %5
  %.not = icmp eq ptr %0, null
  br i1 %.not, label %14, label %9

9:                                                ; preds = %8
  %10 = tail call noundef i64 @_ZN2os17current_thread_idEv() #16
  %11 = tail call noundef i64 asm sideeffect "lock cmpxchgq $1,($3)", "={ax},r,{ax},r,~{cc},~{memory},~{dirflag},~{fpsr},~{flags}"(i64 %10, i64 0, ptr nonnull @_ZL18g_asserting_thread) #16, !srcloc !9
  %12 = icmp eq i64 %11, 0
  br i1 %12, label %13, label %14

13:                                               ; preds = %9
  tail call void @llvm.memcpy.p0.p0.i64(ptr noundef nonnull align 8 dereferenceable(968) @_ZL26g_stored_assertion_context, ptr noundef nonnull readonly align 1 dereferenceable(968) %0, i64 968, i1 false)
  store ptr @_ZL26g_stored_assertion_context, ptr @_ZL19g_assertion_context, align 8
  br label %14

14:                                               ; preds = %2, %8, %13, %9, %5
  %.0 = phi i1 [ false, %5 ], [ true, %9 ], [ true, %13 ], [ true, %8 ], [ false, %2 ]
  ret i1 %.0
}